; Function Attrs: mustprogress nounwind uwtable
define dso_local noundef zeroext i1 @_ZNK5clang12FunctionDecl26isTargetClonesMultiVersionEv(ptr noundef nonnull align 8 dereferenceable(168) %0) local_unnamed_addr #2 align 2 {
  %2 = load ptr, ptr %0, align 8
  %3 = getelementptr inbounds i8, ptr %2, i64 32
  %4 = load ptr, ptr %3, align 8
  %5 = tail call noundef ptr %4(ptr noundef nonnull align 8 dereferenceable(168) %0) #27
  %6 = getelementptr inbounds i8, ptr %5, i64 82
  %7 = load i32, ptr %6, align 2
  %8 = and i32 %7, 4194304
  %.not = icmp eq i32 %8, 0
  br i1 %.not, label %_ZNK5clang4Decl7hasAttrINS_16TargetClonesAttrEEEbv.exit, label %9

9:                                                ; preds = %1
  %10 = getelementptr inbounds nuw i8, ptr %0, i64 28
  %11 = load i32, ptr %10, align 4
  %12 = and i32 %11, 256
  %.not.i = icmp eq i32 %12, 0
  br i1 %.not.i, label %_ZNK5clang4Decl7hasAttrINS_16TargetClonesAttrEEEbv.exit, label %13

13:                                               ; preds = %9
  %14 = tail call noundef nonnull align 8 dereferenceable(48) ptr @_ZNK5clang4Decl8getAttrsEv(ptr noundef nonnull align 8 dereferenceable(33) %0) #27
  %15 = load ptr, ptr %14, align 8
  %16 = tail call noundef i64 @_ZNK4llvm15SmallVectorBaseIjE4sizeEv(ptr noundef nonnull align 8 dereferenceable(16) %14) #27
  %17 = getelementptr inbounds ptr, ptr %15, i64 %16
  %18 = icmp sgt i64 %16, 0
  br i1 %18, label %.lr.ph.i.i.i.i.i, label %25

.lr.ph.i.i.i.i.i:                                 ; preds = %13, %23
  %.sroa.07.1.i.i.i.i = phi ptr [ %24, %23 ], [ %15, %13 ]
  %19 = load ptr, ptr %.sroa.07.1.i.i.i.i, align 8
  %20 = getelementptr inbounds nuw i8, ptr %19, i64 32
  %21 = load i16, ptr %20, align 8
  %22 = icmp eq i16 %21, 354
  br i1 %22, label %_ZN5clang15hasSpecificAttrINS_16TargetClonesAttrEN4llvm11SmallVectorIPNS_4AttrELj4EEEEEbRKT0_.exit.i, label %23

23:                                               ; preds = %.lr.ph.i.i.i.i.i
  %24 = getelementptr inbounds i8, ptr %.sroa.07.1.i.i.i.i, i64 8
  %.not.i.i.i.i.i = icmp eq ptr %24, %17
  br i1 %.not.i.i.i.i.i, label %_ZN5clang15hasSpecificAttrINS_16TargetClonesAttrEN4llvm11SmallVectorIPNS_4AttrELj4EEEEEbRKT0_.exit.i, label %.lr.ph.i.i.i.i.i, !llvm.loop !84

25:                                               ; preds = %13
  %.not2.i3.i.i.i.i = icmp eq i64 %16, 0
  br i1 %.not2.i3.i.i.i.i, label %_ZN5clang15hasSpecificAttrINS_16TargetClonesAttrEN4llvm11SmallVectorIPNS_4AttrELj4EEEEEbRKT0_.exit.i, label %.lr.ph.i4.i.i.i.i

.lr.ph.i4.i.i.i.i:                                ; preds = %25, %30
  %.sroa.0.1.i.i.i.i = phi ptr [ %31, %30 ], [ %17, %25 ]
  %26 = load ptr, ptr %.sroa.0.1.i.i.i.i, align 8
  %27 = getelementptr inbounds nuw i8, ptr %26, i64 32
  %28 = load i16, ptr %27, align 8
  %29 = icmp eq i16 %28, 354
  br i1 %29, label %_ZN5clang15hasSpecificAttrINS_16TargetClonesAttrEN4llvm11SmallVectorIPNS_4AttrELj4EEEEEbRKT0_.exit.i, label %30

30:                                               ; preds = %.lr.ph.i4.i.i.i.i
  %31 = getelementptr inbounds i8, ptr %.sroa.0.1.i.i.i.i, i64 8
  %.not.i5.i.i.i.i = icmp eq ptr %31, %15
  br i1 %.not.i5.i.i.i.i, label %_ZN5clang15hasSpecificAttrINS_16TargetClonesAttrEN4llvm11SmallVectorIPNS_4AttrELj4EEEEEbRKT0_.exit.i, label %.lr.ph.i4.i.i.i.i, !llvm.loop !84

_ZN5clang15hasSpecificAttrINS_16TargetClonesAttrEN4llvm11SmallVectorIPNS_4AttrELj4EEEEEbRKT0_.exit.i: ; preds = %30, %.lr.ph.i4.i.i.i.i, %23, %.lr.ph.i.i.i.i.i, %25
  %.sroa.07.0.i.i.i.i = phi ptr [ %15, %25 ], [ %17, %23 ], [ %.sroa.07.1.i.i.i.i, %.lr.ph.i.i.i.i.i ], [ %15, %.lr.ph.i4.i.i.i.i ], [ %15, %30 ]
  %.sroa.0.0.i.i.i.i = phi ptr [ %15, %25 ], [ %17, %.lr.ph.i.i.i.i.i ], [ %17, %23 ], [ %15, %30 ], [ %.sroa.0.1.i.i.i.i, %.lr.ph.i4.i.i.i.i ]
  %32 = icmp ne ptr %.sroa.07.0.i.i.i.i, %.sroa.0.0.i.i.i.i
  br label %_ZNK5clang4Decl7hasAttrINS_16TargetClonesAttrEEEbv.exit

_ZNK5clang4Decl7hasAttrINS_16TargetClonesAttrEEEbv.exit: ; preds = %_ZN5clang15hasSpecificAttrINS_16TargetClonesAttrEN4llvm11SmallVectorIPNS_4AttrELj4EEEEEbRKT0_.exit.i, %9, %1
  %33 = phi i1 [ false, %1 ], [ false, %9 ], [ %32, %_ZN5clang15hasSpecificAttrINS_16TargetClonesAttrEN4llvm11SmallVectorIPNS_4AttrELj4EEEEEbRKT0_.exit.i ]
  ret i1 %33
}